target datalayout = "e-m:e-p270:32:32-p271:32:32-p272:64:64-i64:64-i128:128-f80:128-n8:16:32:64-S128"
target triple = "x86_64-pc-linux-gnu"

%struct.anon = type { i8 }
%union.anon = type { %struct.anon.2 }
%struct.anon.2 = type { i8, i8, ptr, ptr }
%struct.Type_ = type { i32, ptr, ptr, ptr, %union.anon.85, ptr, ptr, %union.anon.87 }
%union.anon.85 = type { ptr }
%union.anon.87 = type { %struct.TypeFunction }
%struct.TypeFunction = type { ptr, ptr, ptr }
%struct.ABIArgInfo_ = type { i32, i8, %struct.anon, %union.anon }

; Function Attrs: nounwind uwtable
define internal ptr @abi_arg_new(i32 noundef %0) #0 {
  %2 = alloca i32, align 4
  %3 = alloca ptr, align 8
  store i32 %0, ptr %2, align 4
  %4 = call ptr @calloc_arena(i64 noundef 32)
  store ptr %4, ptr %3, align 8
  %5 = load i32, ptr %2, align 4
  %6 = load ptr, ptr %3, align 8
  %7 = getelementptr inbounds %struct.ABIArgInfo_, ptr %6, i32 0, i32 1
  %8 = trunc i32 %5 to i8
  %9 = load i8, ptr %7, align 4
  %10 = and i8 %8, 63
  %11 = and i8 %9, -64
  %12 = or i8 %11, %10
  store i8 %12, ptr %7, align 4
  %13 = load ptr, ptr %3, align 8
  ret ptr %13
}

; Function Attrs: nounwind uwtable
define dso_local ptr @abi_arg_new_direct_coerce_type(ptr noundef %0) #0 {
  %2 = alloca ptr, align 8
  %3 = alloca ptr, align 8
  store ptr %0, ptr %2, align 8
  %4 = call ptr @abi_arg_new(i32 noundef 3)
  store ptr %4, ptr %3, align 8
  %5 = load ptr, ptr %2, align 8
  %6 = getelementptr inbounds %struct.Type_, ptr %5, i32 0, i32 1
  %7 = load ptr, ptr %6, align 8
  %8 = load ptr, ptr %3, align 8
  %9 = getelementptr inbounds %struct.ABIArgInfo_, ptr %8, i32 0, i32 3
  store ptr %7, ptr %9, align 8
  %10 = load ptr, ptr %3, align 8
  ret ptr %10
}

; Function Attrs: nounwind uwtable
define dso_local ptr @abi_arg_new_direct_coerce_int_ext_by_reg(ptr noundef %0, i1 noundef zeroext %1) #0 {
  %3 = alloca i1, align 1
  %4 = alloca ptr, align 8
  %5 = alloca i32, align 4
  %6 = alloca ptr, align 8
  %7 = alloca i8, align 1
  %8 = alloca ptr, align 8
  store ptr %0, ptr %6, align 8
  %9 = zext i1 %1 to i8
  store i8 %9, ptr %7, align 1
  %10 = load ptr, ptr %6, align 8
  %11 = call ptr @abi_arg_new_direct_coerce_type(ptr noundef %10)
  store ptr %11, ptr %8, align 8
  %12 = load ptr, ptr %6, align 8
  store ptr %12, ptr %4, align 8
  %13 = load ptr, ptr %4, align 8
  %14 = load i32, ptr %13, align 8
  store i32 %14, ptr %5, align 4
  %15 = load i32, ptr %5, align 4
  %16 = icmp uge i32 %15, 3
  br i1 %16, label %17, label %21

17:                                               ; preds = %2
  %18 = load i32, ptr %5, align 4
  %19 = icmp ult i32 %18, 8
  br i1 %19, label %20, label %21

20:                                               ; preds = %17
  store i1 true, ptr %3, align 1
  br label %37

21:                                               ; preds = %17, %2
  %22 = load i32, ptr %5, align 4
  %23 = icmp ne i32 %22, 37
  br i1 %23, label %24, label %25

24:                                               ; preds = %21
  store i1 false, ptr %3, align 1
  br label %37

25:                                               ; preds = %21
  %26 = load ptr, ptr %4, align 8
  %27 = getelementptr inbounds %struct.Type_, ptr %26, i32 0, i32 7
  %28 = load ptr, ptr %27, align 8
  %29 = load i32, ptr %28, align 8
  store i32 %29, ptr %5, align 4
  %30 = load i32, ptr %5, align 4
  %31 = icmp uge i32 %30, 3
  br i1 %31, label %32, label %35

32:                                               ; preds = %25
  %33 = load i32, ptr %5, align 4
  %34 = icmp ult i32 %33, 8
  br label %35

35:                                               ; preds = %32, %25
  %36 = phi i1 [ false, %25 ], [ %34, %32 ]
  store i1 %36, ptr %3, align 1
  br label %37

37:                                               ; preds = %35, %24, %20
  %38 = load i1, ptr %3, align 1
  br i1 %38, label %39, label %45

39:                                               ; preds = %37
  %40 = load ptr, ptr %8, align 8
  %41 = getelementptr inbounds %struct.ABIArgInfo_, ptr %40, i32 0, i32 2
  %42 = load i8, ptr %41, align 1
  %43 = and i8 %42, -5
  %44 = or i8 %43, 4
  store i8 %44, ptr %41, align 1
  br label %51

45:                                               ; preds = %37
  %46 = load ptr, ptr %8, align 8
  %47 = getelementptr inbounds %struct.ABIArgInfo_, ptr %46, i32 0, i32 2
  %48 = load i8, ptr %47, align 1
  %49 = and i8 %48, -3
  %50 = or i8 %49, 2
  store i8 %50, ptr %47, align 1
  br label %51

51:                                               ; preds = %45, %39
  %52 = load i8, ptr %7, align 1
  %53 = trunc i8 %52 to i1
  %54 = load ptr, ptr %8, align 8
  %55 = getelementptr inbounds %struct.ABIArgInfo_, ptr %54, i32 0, i32 2
  %56 = zext i1 %53 to i8
  %57 = load i8, ptr %55, align 1
  %58 = and i8 %57, -2
  %59 = or i8 %58, %56
  store i8 %59, ptr %55, align 1
  %60 = load ptr, ptr %8, align 8
  ret ptr %60
}