; Function Attrs: nounwind uwtable
define dso_local ptr @abi_arg_new_direct_coerce_int_ext_by_reg(ptr nocapture noundef readonly %0, i1 noundef zeroext %1) local_unnamed_addr #2 {
  %3 = tail call ptr @calloc_arena(i64 noundef 32) #5
  %4 = getelementptr inbounds i8, ptr %3, i64 4
  %5 = load i8, ptr %4, align 4
  %6 = and i8 %5, -64
  %7 = or disjoint i8 %6, 3
  store i8 %7, ptr %4, align 4
  %8 = getelementptr inbounds i8, ptr %0, i64 8
  %9 = load ptr, ptr %8, align 8
  %10 = getelementptr inbounds i8, ptr %3, i64 8
  store ptr %9, ptr %10, align 8
  %11 = load i32, ptr %0, align 8
  %12 = add i32 %11, -3
  %or.cond = icmp ult i32 %12, 5
  br i1 %or.cond, label %.critedge, label %13

13:                                               ; preds = %2
  %.not = icmp eq i32 %11, 37
  br i1 %.not, label %14, label %.critedge16

14:                                               ; preds = %13
  %15 = getelementptr inbounds i8, ptr %0, i64 56
  %16 = load ptr, ptr %15, align 8
  %17 = load i32, ptr %16, align 8
  %18 = add i32 %17, -3
  %19 = icmp ult i32 %18, 5
  br i1 %19, label %.critedge, label %.critedge16

.critedge16:                                      ; preds = %13, %14
  br label %.critedge

.critedge:                                        ; preds = %14, %2, %.critedge16
  %.sink17 = phi i8 [ 2, %.critedge16 ], [ 4, %2 ], [ 4, %14 ]
  %20 = getelementptr inbounds i8, ptr %3, i64 5
  %21 = load i8, ptr %20, align 1
  %22 = zext i1 %1 to i8
  %23 = getelementptr inbounds i8, ptr %3, i64 5
  %.masked = and i8 %21, -2
  %24 = or i8 %.masked, %.sink17
  %25 = or disjoint i8 %24, %22
  store i8 %25, ptr %23, align 1
  ret ptr %3
}